; Function Attrs: mustprogress nofree norecurse nosync nounwind memory(argmem: readwrite) uwtable
define internal noundef ptr @_ZL22stbi__resample_row_v_2PhS_S_ii(ptr noundef returned writeonly %0, ptr noundef readonly captures(none) %1, ptr noundef readonly captures(none) %2, i32 noundef %3, i32 %4) #31 {
  %6 = icmp sgt i32 %3, 0
  br i1 %6, label %.lr.ph.preheader, label %._crit_edge

.lr.ph.preheader:                                 ; preds = %5
  %wide.trip.count = zext nneg i32 %3 to i64
  br label %.lr.ph

.lr.ph:                                           ; preds = %.lr.ph.preheader, %.lr.ph
  %indvars.iv = phi i64 [ 0, %.lr.ph.preheader ], [ %indvars.iv.next, %.lr.ph ]
  %7 = getelementptr inbounds nuw i8, ptr %1, i64 %indvars.iv
  %8 = load i8, ptr %7, align 1, !tbaa !22
  %9 = zext i8 %8 to i16
  %10 = mul nuw nsw i16 %9, 3
  %11 = getelementptr inbounds nuw i8, ptr %2, i64 %indvars.iv
  %12 = load i8, ptr %11, align 1, !tbaa !22
  %13 = zext i8 %12 to i16
  %14 = add nuw nsw i16 %13, 2
  %15 = add nuw nsw i16 %14, %10
  %16 = lshr i16 %15, 2
  %17 = trunc nuw i16 %16 to i8
  %18 = getelementptr inbounds nuw i8, ptr %0, i64 %indvars.iv
  store i8 %17, ptr %18, align 1, !tbaa !22
  %indvars.iv.next = add nuw nsw i64 %indvars.iv, 1
  %exitcond.not = icmp eq i64 %indvars.iv.next, %wide.trip.count
  br i1 %exitcond.not, label %._crit_edge, label %.lr.ph, !llvm.loop !348

._crit_edge:                                      ; preds = %.lr.ph, %5
  ret ptr %0
}